target datalayout = "e-m:e-p270:32:32-p271:32:32-p272:64:64-i64:64-i128:128-f80:128-n8:16:32:64-S128"
target triple = "x86_64-pc-linux-gnu"

%class.NumberlikeArray = type { i32, i32, ptr }

; Function Attrs: mustprogress nounwind uwtable
define linkonce_odr noundef zeroext i1 @_ZNK15NumberlikeArrayImE7isEmptyEv(ptr noundef nonnull align 8 dereferenceable(16) %0) #1 comdat align 2 {
  %2 = alloca ptr, align 8
  store ptr %0, ptr %2, align 8, !tbaa !13
  %3 = load ptr, ptr %2, align 8
  %4 = getelementptr inbounds nuw %class.NumberlikeArray, ptr %3, i32 0, i32 1
  %5 = load i32, ptr %4, align 4, !tbaa !19
  %6 = icmp eq i32 %5, 0
  ret i1 %6
}

; Function Attrs: mustprogress nounwind uwtable
define linkonce_odr noundef i64 @_ZNK11BigUnsigned8getBlockEj(ptr noundef nonnull align 8 dereferenceable(16) %0, i32 noundef %1) #1 comdat align 2 {
  %3 = alloca ptr, align 8
  %4 = alloca i32, align 4
  store ptr %0, ptr %3, align 8, !tbaa !6
  store i32 %1, ptr %4, align 4, !tbaa !21
  %5 = load ptr, ptr %3, align 8
  %6 = load i32, ptr %4, align 4, !tbaa !21
  %7 = getelementptr inbounds nuw %class.NumberlikeArray, ptr %5, i32 0, i32 1
  %8 = load i32, ptr %7, align 4, !tbaa !19
  %9 = icmp uge i32 %6, %8
  br i1 %9, label %10, label %11

10:                                               ; preds = %2
  br label %18

11:                                               ; preds = %2
  %12 = getelementptr inbounds nuw %class.NumberlikeArray, ptr %5, i32 0, i32 2
  %13 = load ptr, ptr %12, align 8, !tbaa !20
  %14 = load i32, ptr %4, align 4, !tbaa !21
  %15 = zext i32 %14 to i64
  %16 = getelementptr inbounds nuw i64, ptr %13, i64 %15
  %17 = load i64, ptr %16, align 8, !tbaa !11
  br label %18

18:                                               ; preds = %11, %10
  %19 = phi i64 [ 0, %10 ], [ %17, %11 ]
  ret i64 %19
}

; Function Attrs: mustprogress uwtable
define linkonce_odr noundef zeroext i1 @_ZNK11BigUnsigned6isZeroEv(ptr noundef nonnull align 8 dereferenceable(16) %0) #0 comdat align 2 {
  %2 = alloca ptr, align 8
  store ptr %0, ptr %2, align 8, !tbaa !6
  %3 = load ptr, ptr %2, align 8
  %4 = call noundef zeroext i1 @_ZNK15NumberlikeArrayImE7isEmptyEv(ptr noundef nonnull align 8 dereferenceable(16) %3)
  ret i1 %4
}

; Function Attrs: mustprogress uwtable
define noundef i32 @_ZNK11BigUnsigned9bitLengthEv(ptr noundef nonnull align 8 dereferenceable(16) %0) #0 align 2 {
  %2 = alloca i32, align 4
  %3 = alloca ptr, align 8
  %4 = alloca i64, align 8
  %5 = alloca i32, align 4
  store ptr %0, ptr %3, align 8, !tbaa !6
  %6 = load ptr, ptr %3, align 8
  %7 = call noundef zeroext i1 @_ZNK11BigUnsigned6isZeroEv(ptr noundef nonnull align 8 dereferenceable(16) %6)
  br i1 %7, label %8, label %9

8:                                                ; preds = %1
  store i32 0, ptr %2, align 4
  br label %29

9:                                                ; preds = %1
  call void @llvm.lifetime.start.p0(i64 8, ptr %4) #7
  %10 = getelementptr inbounds nuw %class.NumberlikeArray, ptr %6, i32 0, i32 1
  %11 = load i32, ptr %10, align 4, !tbaa !19
  %12 = sub i32 %11, 1
  %13 = call noundef i64 @_ZNK11BigUnsigned8getBlockEj(ptr noundef nonnull align 8 dereferenceable(16) %6, i32 noundef %12)
  store i64 %13, ptr %4, align 8, !tbaa !11
  call void @llvm.lifetime.start.p0(i64 4, ptr %5) #7
  store i32 0, ptr %5, align 4, !tbaa !21
  br label %14

14:                                               ; preds = %17, %9
  %15 = load i64, ptr %4, align 8, !tbaa !11
  %16 = icmp ne i64 %15, 0
  br i1 %16, label %17, label %22

17:                                               ; preds = %14
  %18 = load i64, ptr %4, align 8, !tbaa !11
  %19 = lshr i64 %18, 1
  store i64 %19, ptr %4, align 8, !tbaa !11
  %20 = load i32, ptr %5, align 4, !tbaa !21
  %21 = add i32 %20, 1
  store i32 %21, ptr %5, align 4, !tbaa !21
  br label %14, !llvm.loop !31

22:                                               ; preds = %14
  %23 = load i32, ptr %5, align 4, !tbaa !21
  %24 = getelementptr inbounds nuw %class.NumberlikeArray, ptr %6, i32 0, i32 1
  %25 = load i32, ptr %24, align 4, !tbaa !19
  %26 = sub i32 %25, 1
  %27 = mul i32 %26, 64
  %28 = add i32 %23, %27
  store i32 %28, ptr %2, align 4
  call void @llvm.lifetime.end.p0(i64 4, ptr %5) #7
  call void @llvm.lifetime.end.p0(i64 8, ptr %4) #7
  br label %29

29:                                               ; preds = %22, %8
  %30 = load i32, ptr %2, align 4
  ret i32 %30
}